target datalayout = "e-m:e-p270:32:32-p271:32:32-p272:64:64-i64:64-i128:128-f80:128-n8:16:32:64-S128"
target triple = "x86_64-unknown-linux-gnu"

%"class.absl::log_internal::Voidify" = type { i8 }
%"class.absl::log_internal::LogMessageFatal" = type { %"class.absl::log_internal::LogMessage" }
%"class.absl::log_internal::LogMessage" = type { %"class.absl::base_internal::ErrnoSaver", %"class.std::unique_ptr.2" }
%"class.absl::base_internal::ErrnoSaver" = type { i32 }
%"class.std::unique_ptr.2" = type { %"struct.std::__uniq_ptr_data.3" }
%"struct.std::__uniq_ptr_data.3" = type { %"class.std::__uniq_ptr_impl.4" }
%"class.std::__uniq_ptr_impl.4" = type { %"class.std::tuple.5" }
%"class.std::tuple.5" = type { %"struct.std::_Tuple_impl.6" }
%"struct.std::_Tuple_impl.6" = type { %"struct.std::_Head_base.9" }
%"struct.std::_Head_base.9" = type { ptr }
%"class.std::basic_string_view" = type { i64, ptr }

@.str.4 = private unnamed_addr constant [128 x i8] c"generated/home/dtcxzyw/WorkSpace/Projects/compilers/llvm-opt-benchmark/bench/abseil-cpp/abseil-cpp/absl/log/check_test_impl.inc\00", align 1
@.str.29 = private unnamed_addr constant [32 x i8] c"TEMPLATE_SUM(MACRO_ONE, 2) == 3\00", align 1
@.str.30 = private unnamed_addr constant [3 x i8] c"xy\00", align 1
@.str.31 = private unnamed_addr constant [25 x i8] c"CONCAT(\22x\22, \22y\22) == \22xy\22\00", align 1

; Function Attrs: mustprogress uwtable
define linkonce_odr dso_local noundef ptr @_ZN4absl12log_internal12Check_EQImplIiiEEPNSt7__cxx1112basic_stringIcSt11char_traitsIcESaIcEEERKT_RKT0_PKc(ptr noundef nonnull align 4 dereferenceable(4) %v1, ptr noundef nonnull align 4 dereferenceable(4) %v2, ptr noundef %exprtext) #4 comdat {
entry:
  %v1.addr = alloca ptr, align 8
  %v2.addr = alloca ptr, align 8
  %exprtext.addr = alloca ptr, align 8
  store ptr %v1, ptr %v1.addr, align 8
  store ptr %v2, ptr %v2.addr, align 8
  store ptr %exprtext, ptr %exprtext.addr, align 8
  %0 = load ptr, ptr %v1.addr, align 8
  %1 = load i32, ptr %0, align 4
  %2 = load ptr, ptr %v2.addr, align 8
  %3 = load i32, ptr %2, align 4
  %cmp = icmp eq i32 %1, %3
  br i1 %cmp, label %cond.true, label %cond.false

cond.true:                                        ; preds = %entry
  br label %cond.end

cond.false:                                       ; preds = %entry
  %4 = load ptr, ptr %v1.addr, align 8
  %5 = load i32, ptr %4, align 4
  %conv = sext i32 %5 to i64
  %6 = load ptr, ptr %v2.addr, align 8
  %7 = load i32, ptr %6, align 4
  %conv1 = sext i32 %7 to i64
  %8 = load ptr, ptr %exprtext.addr, align 8
  %call = call noundef nonnull ptr @_ZN4absl12log_internal17MakeCheckOpStringIllEEPNSt7__cxx1112basic_stringIcSt11char_traitsIcESaIcEEET_T0_PKc(i64 noundef %conv, i64 noundef %conv1, ptr noundef %8)
  br label %cond.end

cond.end:                                         ; preds = %cond.false, %cond.true
  %cond = phi ptr [ null, %cond.true ], [ %call, %cond.false ]
  ret ptr %cond
}

; Function Attrs: mustprogress nounwind uwtable
define linkonce_odr dso_local void @_ZNKO4absl12log_internal7VoidifyaaINS0_10LogMessageEEEvRKT_(ptr noundef nonnull align 1 dereferenceable(1) %this, ptr noundef nonnull align 8 dereferenceable(16) %0) #6 comdat align 2 {
entry:
  %this.addr = alloca ptr, align 8
  %.addr = alloca ptr, align 8
  store ptr %this, ptr %this.addr, align 8
  store ptr %0, ptr %.addr, align 8
  ret void
}

; Function Attrs: mustprogress nounwind uwtable
define linkonce_odr dso_local noundef nonnull align 8 dereferenceable(16) ptr @_ZN4absl12log_internal10LogMessage14InternalStreamEv(ptr noundef nonnull align 8 dereferenceable(16) %this) #6 comdat align 2 {
entry:
  %this.addr = alloca ptr, align 8
  store ptr %this, ptr %this.addr, align 8
  %this1 = load ptr, ptr %this.addr, align 8
  ret ptr %this1
}

; Function Attrs: mustprogress uwtable
define linkonce_odr dso_local noundef ptr @_ZN4absl12log_internal12Check_EQImplB5cxx11EiiPKc(i32 noundef %v1, i32 noundef %v2, ptr noundef %exprtext) #4 comdat {
entry:
  %v1.addr = alloca i32, align 4
  %v2.addr = alloca i32, align 4
  %exprtext.addr = alloca ptr, align 8
  store i32 %v1, ptr %v1.addr, align 4
  store i32 %v2, ptr %v2.addr, align 4
  store ptr %exprtext, ptr %exprtext.addr, align 8
  %0 = load ptr, ptr %exprtext.addr, align 8
  %call = call noundef ptr @_ZN4absl12log_internal12Check_EQImplIiiEEPNSt7__cxx1112basic_stringIcSt11char_traitsIcESaIcEEERKT_RKT0_PKc(ptr noundef nonnull align 4 dereferenceable(4) %v1.addr, ptr noundef nonnull align 4 dereferenceable(4) %v2.addr, ptr noundef %0)
  ret ptr %call
}

; Function Attrs: mustprogress nounwind uwtable
define linkonce_odr dso_local noundef i32 @_ZN4absl12log_internal21GetReferenceableValueEi(i32 noundef %t) #6 comdat {
entry:
  %t.addr = alloca i32, align 4
  store i32 %t, ptr %t.addr, align 4
  %0 = load i32, ptr %t.addr, align 4
  ret i32 %0
}

; Function Attrs: mustprogress nounwind uwtable
define linkonce_odr dso_local noundef i32 @_ZN17absl_log_internal3sumILi1ELi2EEEiv() #6 comdat {
entry:
  ret i32 3
}

; Function Attrs: mustprogress uwtable
define dso_local void @_ZN17absl_log_internal40CHECKTest_TestPassingMacroExpansion_Test8TestBodyEv(ptr noundef nonnull align 8 dereferenceable(16) %this) unnamed_addr #4 align 2 personality ptr @__gxx_personality_v0 {
entry:
  %this.addr = alloca ptr, align 8
  %absl_log_internal_check_op_result = alloca ptr, align 8
  %ref.tmp = alloca %"class.absl::log_internal::Voidify", align 1
  %ref.tmp5 = alloca %"class.absl::log_internal::LogMessageFatal", align 8
  %agg.tmp = alloca %"class.std::basic_string_view", align 8
  %exn.slot = alloca ptr, align 8
  %ehselector.slot = alloca i32, align 4
  %absl_log_internal_check_strop_result = alloca ptr, align 8
  %ref.tmp13 = alloca %"class.absl::log_internal::Voidify", align 1
  %ref.tmp14 = alloca %"class.absl::log_internal::LogMessageFatal", align 8
  %agg.tmp15 = alloca %"class.std::basic_string_view", align 8
  store ptr %this, ptr %this.addr, align 8
  br label %while.cond

while.cond:                                       ; preds = %entry
  %call = call noundef i32 @_ZN17absl_log_internal3sumILi1ELi2EEEiv()
  %call2 = call noundef i32 @_ZN4absl12log_internal21GetReferenceableValueEi(i32 noundef %call)
  %call3 = call noundef i32 @_ZN4absl12log_internal21GetReferenceableValueEi(i32 noundef 3)
  %call4 = call noundef ptr @_ZN4absl12log_internal12Check_EQImplB5cxx11EiiPKc(i32 noundef %call2, i32 noundef %call3, ptr noundef @.str.29)
  store ptr %call4, ptr %absl_log_internal_check_op_result, align 8
  %0 = load ptr, ptr %absl_log_internal_check_op_result, align 8
  %tobool = icmp ne ptr %0, null
  br i1 %tobool, label %while.body, label %while.end

while.body:                                       ; preds = %while.cond
  %1 = load ptr, ptr %absl_log_internal_check_op_result, align 8
  %call6 = call { i64, ptr } @_ZNKSt7__cxx1112basic_stringIcSt11char_traitsIcESaIcEEcvSt17basic_string_viewIcS2_EEv(ptr noundef nonnull align 8 dereferenceable(32) %1) #3
  %2 = getelementptr inbounds { i64, ptr }, ptr %agg.tmp, i32 0, i32 0
  %3 = extractvalue { i64, ptr } %call6, 0
  store i64 %3, ptr %2, align 8
  %4 = getelementptr inbounds { i64, ptr }, ptr %agg.tmp, i32 0, i32 1
  %5 = extractvalue { i64, ptr } %call6, 1
  store ptr %5, ptr %4, align 8
  %6 = getelementptr inbounds { i64, ptr }, ptr %agg.tmp, i32 0, i32 0
  %7 = load i64, ptr %6, align 8
  %8 = getelementptr inbounds { i64, ptr }, ptr %agg.tmp, i32 0, i32 1
  %9 = load ptr, ptr %8, align 8
  call void @_ZN4absl12log_internal15LogMessageFatalC1EPKciSt17basic_string_viewIcSt11char_traitsIcEE(ptr noundef nonnull align 8 dereferenceable(16) %ref.tmp5, ptr noundef @.str.4, i32 noundef 135, i64 %7, ptr %9) #20
  %call7 = invoke noundef nonnull align 8 dereferenceable(16) ptr @_ZN4absl12log_internal10LogMessage14InternalStreamEv(ptr noundef nonnull align 8 dereferenceable(16) %ref.tmp5)
          to label %invoke.cont unwind label %lpad

invoke.cont:                                      ; preds = %while.body
  invoke void @_ZNKO4absl12log_internal7VoidifyaaINS0_10LogMessageEEEvRKT_(ptr noundef nonnull align 1 dereferenceable(1) %ref.tmp, ptr noundef nonnull align 8 dereferenceable(16) %call7)
          to label %invoke.cont8 unwind label %lpad

invoke.cont8:                                     ; preds = %invoke.cont
  call void @_ZN4absl12log_internal15LogMessageFatalD1Ev(ptr noundef nonnull align 8 dereferenceable(16) %ref.tmp5) #21
  unreachable

lpad:                                             ; preds = %invoke.cont, %while.body
  %10 = landingpad { ptr, i32 }
          cleanup
  %11 = extractvalue { ptr, i32 } %10, 0
  store ptr %11, ptr %exn.slot, align 8
  %12 = extractvalue { ptr, i32 } %10, 1
  store i32 %12, ptr %ehselector.slot, align 4
  call void @_ZN4absl12log_internal15LogMessageFatalD1Ev(ptr noundef nonnull align 8 dereferenceable(16) %ref.tmp5) #21
  unreachable

13:                                               ; No predecessors!
  br label %eh.resume

while.end:                                        ; preds = %while.cond
  br label %while.cond9

while.cond9:                                      ; preds = %while.end
  %call10 = call noundef ptr @_ZN4absl12log_internal19CheckstrcmptrueImplB5cxx11EPKcS2_S2_(ptr noundef @.str.30, ptr noundef @.str.30, ptr noundef @.str.31)
  store ptr %call10, ptr %absl_log_internal_check_strop_result, align 8
  %14 = load ptr, ptr %absl_log_internal_check_strop_result, align 8
  %tobool11 = icmp ne ptr %14, null
  br i1 %tobool11, label %while.body12, label %while.end21

while.body12:                                     ; preds = %while.cond9
  %15 = load ptr, ptr %absl_log_internal_check_strop_result, align 8
  %call16 = call { i64, ptr } @_ZNKSt7__cxx1112basic_stringIcSt11char_traitsIcESaIcEEcvSt17basic_string_viewIcS2_EEv(ptr noundef nonnull align 8 dereferenceable(32) %15) #3
  %16 = getelementptr inbounds { i64, ptr }, ptr %agg.tmp15, i32 0, i32 0
  %17 = extractvalue { i64, ptr } %call16, 0
  store i64 %17, ptr %16, align 8
  %18 = getelementptr inbounds { i64, ptr }, ptr %agg.tmp15, i32 0, i32 1
  %19 = extractvalue { i64, ptr } %call16, 1
  store ptr %19, ptr %18, align 8
  %20 = getelementptr inbounds { i64, ptr }, ptr %agg.tmp15, i32 0, i32 0
  %21 = load i64, ptr %20, align 8
  %22 = getelementptr inbounds { i64, ptr }, ptr %agg.tmp15, i32 0, i32 1
  %23 = load ptr, ptr %22, align 8
  call void @_ZN4absl12log_internal15LogMessageFatalC1EPKciSt17basic_string_viewIcSt11char_traitsIcEE(ptr noundef nonnull align 8 dereferenceable(16) %ref.tmp14, ptr noundef @.str.4, i32 noundef 136, i64 %21, ptr %23) #20
  %call19 = invoke noundef nonnull align 8 dereferenceable(16) ptr @_ZN4absl12log_internal10LogMessage14InternalStreamEv(ptr noundef nonnull align 8 dereferenceable(16) %ref.tmp14)
          to label %invoke.cont18 unwind label %lpad17

invoke.cont18:                                    ; preds = %while.body12
  invoke void @_ZNKO4absl12log_internal7VoidifyaaINS0_10LogMessageEEEvRKT_(ptr noundef nonnull align 1 dereferenceable(1) %ref.tmp13, ptr noundef nonnull align 8 dereferenceable(16) %call19)
          to label %invoke.cont20 unwind label %lpad17

invoke.cont20:                                    ; preds = %invoke.cont18
  call void @_ZN4absl12log_internal15LogMessageFatalD1Ev(ptr noundef nonnull align 8 dereferenceable(16) %ref.tmp14) #21
  unreachable

lpad17:                                           ; preds = %invoke.cont18, %while.body12
  %24 = landingpad { ptr, i32 }
          cleanup
  %25 = extractvalue { ptr, i32 } %24, 0
  store ptr %25, ptr %exn.slot, align 8
  %26 = extractvalue { ptr, i32 } %24, 1
  store i32 %26, ptr %ehselector.slot, align 4
  call void @_ZN4absl12log_internal15LogMessageFatalD1Ev(ptr noundef nonnull align 8 dereferenceable(16) %ref.tmp14) #21
  unreachable

27:                                               ; No predecessors!
  br label %eh.resume

while.end21:                                      ; preds = %while.cond9
  ret void

eh.resume:                                        ; preds = %27, %13
  %exn = load ptr, ptr %exn.slot, align 8
  %sel = load i32, ptr %ehselector.slot, align 4
  %lpad.val = insertvalue { ptr, i32 } poison, ptr %exn, 0
  %lpad.val22 = insertvalue { ptr, i32 } %lpad.val, i32 %sel, 1
  resume { ptr, i32 } %lpad.val22
}