; Function Attrs: mustprogress uwtable
define dso_local void @_ZN17absl_log_internal40CHECKTest_TestPassingMacroExpansion_Test8TestBodyEv(ptr nocapture nonnull readnone align 8 %this) unnamed_addr #4 align 2 personality ptr @__gxx_personality_v0 {
while.cond9:
  %ref.tmp14 = alloca %"class.absl::log_internal::LogMessageFatal", align 8
  %call10 = tail call noundef ptr @_ZN4absl12log_internal19CheckstrcmptrueImplB5cxx11EPKcS2_S2_(ptr noundef nonnull @.str.30, ptr noundef nonnull @.str.30, ptr noundef nonnull @.str.31)
  %tobool11.not = icmp eq ptr %call10, null
  br i1 %tobool11.not, label %while.end21, label %while.body12

while.body12:                                     ; preds = %while.cond9
  %call16 = tail call { i64, ptr } @_ZNKSt7__cxx1112basic_stringIcSt11char_traitsIcESaIcEEcvSt17basic_string_viewIcS2_EEv(ptr noundef nonnull align 8 dereferenceable(32) %call10) #22
  %0 = extractvalue { i64, ptr } %call16, 0
  %1 = extractvalue { i64, ptr } %call16, 1
  call void @_ZN4absl12log_internal15LogMessageFatalC1EPKciSt17basic_string_viewIcSt11char_traitsIcEE(ptr noundef nonnull align 8 dereferenceable(16) %ref.tmp14, ptr noundef nonnull @.str.4, i32 noundef 136, i64 %0, ptr %1) #24
  call void @_ZN4absl12log_internal15LogMessageFatalD1Ev(ptr noundef nonnull align 8 dereferenceable(16) %ref.tmp14) #23
  unreachable

while.end21:                                      ; preds = %while.cond9
  ret void
}